target datalayout = "e-m:e-p270:32:32-p271:32:32-p272:64:64-i64:64-i128:128-f80:128-n8:16:32:64-S128"
target triple = "x86_64-pc-linux-gnu"

%struct.HashJoinTableData = type { i32, i32, i32, i32, i32, %union.anon, i8, ptr, i32, i32, ptr, i32, i32, i32, i32, i8, double, double, double, ptr, ptr, i64, i64, i64, i64, i64, ptr, ptr, ptr, ptr, ptr, ptr, ptr, ptr, i64 }
%union.anon = type { ptr }
%struct.ParallelHashJoinState = type { i64, i64, i32, i32, i32, i32, i64, i32, i64, i64, %struct.LWLock, %struct.Barrier, %struct.Barrier, %struct.Barrier, %struct.pg_atomic_uint32, %struct.SharedFileSet }
%struct.LWLock = type { i16, %struct.pg_atomic_uint32, %struct.proclist_head }
%struct.proclist_head = type { i32, i32 }
%struct.Barrier = type { i8, i32, i32, i32, i32, i8, %struct.ConditionVariable }
%struct.ConditionVariable = type { i8, %struct.proclist_head }
%struct.pg_atomic_uint32 = type { i32 }
%struct.SharedFileSet = type { %struct.FileSet, i8, i32 }
%struct.FileSet = type { i32, i32, i32, [8 x i32] }
%struct.ParallelHashJoinBatchAccessor = type { ptr, i64, i64, i64, i64, i64, i8, i8, i8, ptr, ptr }

@CurrentMemoryContext = external global ptr, align 8
@ParallelWorkerNumber = external global i32, align 4

; Function Attrs: inlinehint nounwind uwtable
define internal ptr @MemoryContextSwitchTo(ptr noundef %0) #3 {
  %2 = alloca ptr, align 8
  %3 = alloca ptr, align 8
  store ptr %0, ptr %2, align 8
  call void @llvm.lifetime.start.p0(i64 8, ptr %3) #9
  %4 = load ptr, ptr @CurrentMemoryContext, align 8
  store ptr %4, ptr %3, align 8
  %5 = load ptr, ptr %2, align 8
  store ptr %5, ptr @CurrentMemoryContext, align 8
  %6 = load ptr, ptr %3, align 8
  call void @llvm.lifetime.end.p0(i64 8, ptr %3) #9
  ret ptr %6
}

; Function Attrs: nounwind uwtable
define internal void @ExecParallelHashCloseBatchAccessors(ptr noundef %0) #0 {
  %2 = alloca ptr, align 8
  %3 = alloca i32, align 4
  store ptr %0, ptr %2, align 8
  call void @llvm.lifetime.start.p0(i64 4, ptr %3) #9
  store i32 0, ptr %3, align 4
  br label %4

4:                                                ; preds = %43, %1
  %5 = load i32, ptr %3, align 4
  %6 = load ptr, ptr %2, align 8
  %7 = getelementptr inbounds nuw %struct.HashJoinTableData, ptr %6, i32 0, i32 11
  %8 = load i32, ptr %7, align 8
  %9 = icmp slt i32 %5, %8
  br i1 %9, label %10, label %46

10:                                               ; preds = %4
  %11 = load ptr, ptr %2, align 8
  %12 = getelementptr inbounds nuw %struct.HashJoinTableData, ptr %11, i32 0, i32 33
  %13 = load ptr, ptr %12, align 8
  %14 = load i32, ptr %3, align 4
  %15 = sext i32 %14 to i64
  %16 = getelementptr inbounds %struct.ParallelHashJoinBatchAccessor, ptr %13, i64 %15
  %17 = getelementptr inbounds nuw %struct.ParallelHashJoinBatchAccessor, ptr %16, i32 0, i32 9
  %18 = load ptr, ptr %17, align 8
  call void @sts_end_write(ptr noundef %18)
  %19 = load ptr, ptr %2, align 8
  %20 = getelementptr inbounds nuw %struct.HashJoinTableData, ptr %19, i32 0, i32 33
  %21 = load ptr, ptr %20, align 8
  %22 = load i32, ptr %3, align 4
  %23 = sext i32 %22 to i64
  %24 = getelementptr inbounds %struct.ParallelHashJoinBatchAccessor, ptr %21, i64 %23
  %25 = getelementptr inbounds nuw %struct.ParallelHashJoinBatchAccessor, ptr %24, i32 0, i32 10
  %26 = load ptr, ptr %25, align 8
  call void @sts_end_write(ptr noundef %26)
  %27 = load ptr, ptr %2, align 8
  %28 = getelementptr inbounds nuw %struct.HashJoinTableData, ptr %27, i32 0, i32 33
  %29 = load ptr, ptr %28, align 8
  %30 = load i32, ptr %3, align 4
  %31 = sext i32 %30 to i64
  %32 = getelementptr inbounds %struct.ParallelHashJoinBatchAccessor, ptr %29, i64 %31
  %33 = getelementptr inbounds nuw %struct.ParallelHashJoinBatchAccessor, ptr %32, i32 0, i32 9
  %34 = load ptr, ptr %33, align 8
  call void @sts_end_parallel_scan(ptr noundef %34)
  %35 = load ptr, ptr %2, align 8
  %36 = getelementptr inbounds nuw %struct.HashJoinTableData, ptr %35, i32 0, i32 33
  %37 = load ptr, ptr %36, align 8
  %38 = load i32, ptr %3, align 4
  %39 = sext i32 %38 to i64
  %40 = getelementptr inbounds %struct.ParallelHashJoinBatchAccessor, ptr %37, i64 %39
  %41 = getelementptr inbounds nuw %struct.ParallelHashJoinBatchAccessor, ptr %40, i32 0, i32 10
  %42 = load ptr, ptr %41, align 8
  call void @sts_end_parallel_scan(ptr noundef %42)
  br label %43

43:                                               ; preds = %10
  %44 = load i32, ptr %3, align 4
  %45 = add i32 %44, 1
  store i32 %45, ptr %3, align 4
  br label %4, !llvm.loop !40

46:                                               ; preds = %4
  %47 = load ptr, ptr %2, align 8
  %48 = getelementptr inbounds nuw %struct.HashJoinTableData, ptr %47, i32 0, i32 33
  %49 = load ptr, ptr %48, align 8
  call void @pfree(ptr noundef %49)
  %50 = load ptr, ptr %2, align 8
  %51 = getelementptr inbounds nuw %struct.HashJoinTableData, ptr %50, i32 0, i32 33
  store ptr null, ptr %51, align 8
  call void @llvm.lifetime.end.p0(i64 4, ptr %3) #9
  ret void
}

; Function Attrs: nounwind uwtable
define internal void @ExecParallelHashEnsureBatchAccessors(ptr noundef %0) #0 {
  %2 = alloca ptr, align 8
  %3 = alloca ptr, align 8
  %4 = alloca ptr, align 8
  %5 = alloca ptr, align 8
  %6 = alloca i32, align 4
  %7 = alloca i32, align 4
  %8 = alloca ptr, align 8
  %9 = alloca ptr, align 8
  store ptr %0, ptr %2, align 8
  call void @llvm.lifetime.start.p0(i64 8, ptr %3) #9
  %10 = load ptr, ptr %2, align 8
  %11 = getelementptr inbounds nuw %struct.HashJoinTableData, ptr %10, i32 0, i32 32
  %12 = load ptr, ptr %11, align 8
  store ptr %12, ptr %3, align 8
  call void @llvm.lifetime.start.p0(i64 8, ptr %4) #9
  call void @llvm.lifetime.start.p0(i64 8, ptr %5) #9
  call void @llvm.lifetime.start.p0(i64 4, ptr %6) #9
  %13 = load ptr, ptr %2, align 8
  %14 = getelementptr inbounds nuw %struct.HashJoinTableData, ptr %13, i32 0, i32 33
  %15 = load ptr, ptr %14, align 8
  %16 = icmp ne ptr %15, null
  br i1 %16, label %17, label %28

17:                                               ; preds = %1
  %18 = load ptr, ptr %2, align 8
  %19 = getelementptr inbounds nuw %struct.HashJoinTableData, ptr %18, i32 0, i32 11
  %20 = load i32, ptr %19, align 8
  %21 = load ptr, ptr %3, align 8
  %22 = getelementptr inbounds nuw %struct.ParallelHashJoinState, ptr %21, i32 0, i32 2
  %23 = load i32, ptr %22, align 8
  %24 = icmp eq i32 %20, %23
  br i1 %24, label %25, label %26

25:                                               ; preds = %17
  store i32 1, ptr %7, align 4
  br label %121

26:                                               ; preds = %17
  %27 = load ptr, ptr %2, align 8
  call void @ExecParallelHashCloseBatchAccessors(ptr noundef %27)
  br label %28

28:                                               ; preds = %26, %1
  %29 = load ptr, ptr %2, align 8
  %30 = getelementptr inbounds nuw %struct.HashJoinTableData, ptr %29, i32 0, i32 28
  %31 = load ptr, ptr %30, align 8
  %32 = call ptr @MemoryContextSwitchTo(ptr noundef %31)
  store ptr %32, ptr %5, align 8
  %33 = load ptr, ptr %3, align 8
  %34 = getelementptr inbounds nuw %struct.ParallelHashJoinState, ptr %33, i32 0, i32 2
  %35 = load i32, ptr %34, align 8
  %36 = load ptr, ptr %2, align 8
  %37 = getelementptr inbounds nuw %struct.HashJoinTableData, ptr %36, i32 0, i32 11
  store i32 %35, ptr %37, align 8
  %38 = load ptr, ptr %2, align 8
  %39 = getelementptr inbounds nuw %struct.HashJoinTableData, ptr %38, i32 0, i32 11
  %40 = load i32, ptr %39, align 8
  %41 = sext i32 %40 to i64
  %42 = mul i64 72, %41
  %43 = call ptr @palloc0(i64 noundef %42)
  %44 = load ptr, ptr %2, align 8
  %45 = getelementptr inbounds nuw %struct.HashJoinTableData, ptr %44, i32 0, i32 33
  store ptr %43, ptr %45, align 8
  %46 = load ptr, ptr %2, align 8
  %47 = getelementptr inbounds nuw %struct.HashJoinTableData, ptr %46, i32 0, i32 31
  %48 = load ptr, ptr %47, align 8
  %49 = load ptr, ptr %3, align 8
  %50 = getelementptr inbounds nuw %struct.ParallelHashJoinState, ptr %49, i32 0, i32 0
  %51 = load i64, ptr %50, align 8
  %52 = call ptr @dsa_get_address(ptr noundef %48, i64 noundef %51)
  store ptr %52, ptr %4, align 8
  store i32 0, ptr %6, align 4
  br label %53

53:                                               ; preds = %115, %28
  %54 = load i32, ptr %6, align 4
  %55 = load ptr, ptr %2, align 8
  %56 = getelementptr inbounds nuw %struct.HashJoinTableData, ptr %55, i32 0, i32 11
  %57 = load i32, ptr %56, align 8
  %58 = icmp slt i32 %54, %57
  br i1 %58, label %59, label %118

59:                                               ; preds = %53
  call void @llvm.lifetime.start.p0(i64 8, ptr %8) #9
  %60 = load ptr, ptr %2, align 8
  %61 = getelementptr inbounds nuw %struct.HashJoinTableData, ptr %60, i32 0, i32 33
  %62 = load ptr, ptr %61, align 8
  %63 = load i32, ptr %6, align 4
  %64 = sext i32 %63 to i64
  %65 = getelementptr inbounds %struct.ParallelHashJoinBatchAccessor, ptr %62, i64 %64
  store ptr %65, ptr %8, align 8
  call void @llvm.lifetime.start.p0(i64 8, ptr %9) #9
  %66 = load ptr, ptr %4, align 8
  %67 = load ptr, ptr %2, align 8
  %68 = getelementptr inbounds nuw %struct.HashJoinTableData, ptr %67, i32 0, i32 32
  %69 = load ptr, ptr %68, align 8
  %70 = getelementptr inbounds nuw %struct.ParallelHashJoinState, ptr %69, i32 0, i32 7
  %71 = load i32, ptr %70, align 8
  %72 = call i64 @sts_estimate(i32 noundef %71)
  %73 = add i64 %72, 7
  %74 = and i64 %73, -8
  %75 = mul i64 %74, 2
  %76 = add i64 96, %75
  %77 = load i32, ptr %6, align 4
  %78 = sext i32 %77 to i64
  %79 = mul i64 %76, %78
  %80 = getelementptr inbounds nuw i8, ptr %66, i64 %79
  store ptr %80, ptr %9, align 8
  %81 = load ptr, ptr %9, align 8
  %82 = load ptr, ptr %8, align 8
  %83 = getelementptr inbounds nuw %struct.ParallelHashJoinBatchAccessor, ptr %82, i32 0, i32 0
  store ptr %81, ptr %83, align 8
  %84 = load ptr, ptr %8, align 8
  %85 = getelementptr inbounds nuw %struct.ParallelHashJoinBatchAccessor, ptr %84, i32 0, i32 1
  store i64 0, ptr %85, align 8
  %86 = load ptr, ptr %8, align 8
  %87 = getelementptr inbounds nuw %struct.ParallelHashJoinBatchAccessor, ptr %86, i32 0, i32 8
  store i8 0, ptr %87, align 2
  %88 = load ptr, ptr %8, align 8
  %89 = getelementptr inbounds nuw %struct.ParallelHashJoinBatchAccessor, ptr %88, i32 0, i32 7
  store i8 0, ptr %89, align 1
  %90 = load ptr, ptr %9, align 8
  %91 = getelementptr inbounds nuw i8, ptr %90, i64 96
  %92 = load i32, ptr @ParallelWorkerNumber, align 4
  %93 = add i32 %92, 1
  %94 = load ptr, ptr %3, align 8
  %95 = getelementptr inbounds nuw %struct.ParallelHashJoinState, ptr %94, i32 0, i32 15
  %96 = call ptr @sts_attach(ptr noundef %91, i32 noundef %93, ptr noundef %95)
  %97 = load ptr, ptr %8, align 8
  %98 = getelementptr inbounds nuw %struct.ParallelHashJoinBatchAccessor, ptr %97, i32 0, i32 9
  store ptr %96, ptr %98, align 8
  %99 = load ptr, ptr %9, align 8
  %100 = getelementptr inbounds nuw i8, ptr %99, i64 96
  %101 = load ptr, ptr %3, align 8
  %102 = getelementptr inbounds nuw %struct.ParallelHashJoinState, ptr %101, i32 0, i32 7
  %103 = load i32, ptr %102, align 8
  %104 = call i64 @sts_estimate(i32 noundef %103)
  %105 = add i64 %104, 7
  %106 = and i64 %105, -8
  %107 = getelementptr inbounds nuw i8, ptr %100, i64 %106
  %108 = load i32, ptr @ParallelWorkerNumber, align 4
  %109 = add i32 %108, 1
  %110 = load ptr, ptr %3, align 8
  %111 = getelementptr inbounds nuw %struct.ParallelHashJoinState, ptr %110, i32 0, i32 15
  %112 = call ptr @sts_attach(ptr noundef %107, i32 noundef %109, ptr noundef %111)
  %113 = load ptr, ptr %8, align 8
  %114 = getelementptr inbounds nuw %struct.ParallelHashJoinBatchAccessor, ptr %113, i32 0, i32 10
  store ptr %112, ptr %114, align 8
  call void @llvm.lifetime.end.p0(i64 8, ptr %9) #9
  call void @llvm.lifetime.end.p0(i64 8, ptr %8) #9
  br label %115

115:                                              ; preds = %59
  %116 = load i32, ptr %6, align 4
  %117 = add i32 %116, 1
  store i32 %117, ptr %6, align 4
  br label %53, !llvm.loop !38

118:                                              ; preds = %53
  %119 = load ptr, ptr %5, align 8
  %120 = call ptr @MemoryContextSwitchTo(ptr noundef %119)
  store i32 0, ptr %7, align 4
  br label %121

121:                                              ; preds = %118, %25
  call void @llvm.lifetime.end.p0(i64 4, ptr %6) #9
  call void @llvm.lifetime.end.p0(i64 8, ptr %5) #9
  call void @llvm.lifetime.end.p0(i64 8, ptr %4) #9
  call void @llvm.lifetime.end.p0(i64 8, ptr %3) #9
  %122 = load i32, ptr %7, align 4
  switch i32 %122, label %124 [
    i32 0, label %123
    i32 1, label %123
  ]

123:                                              ; preds = %121, %121
  ret void

124:                                              ; preds = %121
  unreachable
}