; Function Attrs: nounwind uwtable
define internal fastcc void @ExecParallelHashEnsureBatchAccessors(ptr noundef captures(none) %0) unnamed_addr #0 {
  %2 = getelementptr inbounds nuw i8, ptr %0, i64 216
  %3 = load ptr, ptr %2, align 8
  %4 = getelementptr inbounds nuw i8, ptr %0, i64 224
  %5 = load ptr, ptr %4, align 8
  %.not = icmp eq ptr %5, null
  br i1 %.not, label %30, label %6

6:                                                ; preds = %1
  %7 = getelementptr inbounds nuw i8, ptr %0, i64 64
  %8 = load i32, ptr %7, align 8
  %9 = getelementptr inbounds nuw i8, ptr %3, i64 16
  %10 = load i32, ptr %9, align 8
  %11 = icmp eq i32 %8, %10
  br i1 %11, label %81, label %12

12:                                               ; preds = %6
  %13 = icmp sgt i32 %8, 0
  br i1 %13, label %.lr.ph.i, label %ExecParallelHashCloseBatchAccessors.exit

.lr.ph.i:                                         ; preds = %12, %.lr.ph.i
  %indvars.iv.i = phi i64 [ %indvars.iv.next.i, %.lr.ph.i ], [ 0, %12 ]
  %14 = load ptr, ptr %4, align 8
  %15 = getelementptr inbounds nuw %struct.ParallelHashJoinBatchAccessor, ptr %14, i64 %indvars.iv.i, i32 9
  %16 = load ptr, ptr %15, align 8
  tail call void @sts_end_write(ptr noundef %16) #16
  %17 = load ptr, ptr %4, align 8
  %18 = getelementptr inbounds nuw %struct.ParallelHashJoinBatchAccessor, ptr %17, i64 %indvars.iv.i, i32 10
  %19 = load ptr, ptr %18, align 8
  tail call void @sts_end_write(ptr noundef %19) #16
  %20 = load ptr, ptr %4, align 8
  %21 = getelementptr inbounds nuw %struct.ParallelHashJoinBatchAccessor, ptr %20, i64 %indvars.iv.i, i32 9
  %22 = load ptr, ptr %21, align 8
  tail call void @sts_end_parallel_scan(ptr noundef %22) #16
  %23 = load ptr, ptr %4, align 8
  %24 = getelementptr inbounds nuw %struct.ParallelHashJoinBatchAccessor, ptr %23, i64 %indvars.iv.i, i32 10
  %25 = load ptr, ptr %24, align 8
  tail call void @sts_end_parallel_scan(ptr noundef %25) #16
  %indvars.iv.next.i = add nuw nsw i64 %indvars.iv.i, 1
  %26 = load i32, ptr %7, align 8
  %27 = sext i32 %26 to i64
  %28 = icmp slt i64 %indvars.iv.next.i, %27
  br i1 %28, label %.lr.ph.i, label %ExecParallelHashCloseBatchAccessors.exit.loopexit, !llvm.loop !35

ExecParallelHashCloseBatchAccessors.exit.loopexit: ; preds = %.lr.ph.i
  %.pre = load ptr, ptr %4, align 8
  br label %ExecParallelHashCloseBatchAccessors.exit

ExecParallelHashCloseBatchAccessors.exit:         ; preds = %ExecParallelHashCloseBatchAccessors.exit.loopexit, %12
  %29 = phi ptr [ %.pre, %ExecParallelHashCloseBatchAccessors.exit.loopexit ], [ %5, %12 ]
  tail call void @pfree(ptr noundef %29) #16
  store ptr null, ptr %4, align 8
  br label %30

30:                                               ; preds = %ExecParallelHashCloseBatchAccessors.exit, %1
  %31 = getelementptr inbounds nuw i8, ptr %0, i64 184
  %32 = load ptr, ptr %31, align 8
  %33 = load ptr, ptr @CurrentMemoryContext, align 8
  store ptr %32, ptr @CurrentMemoryContext, align 8
  %34 = getelementptr inbounds nuw i8, ptr %3, i64 16
  %35 = load i32, ptr %34, align 8
  %36 = getelementptr inbounds nuw i8, ptr %0, i64 64
  store i32 %35, ptr %36, align 8
  %37 = sext i32 %35 to i64
  %38 = mul nsw i64 %37, 72
  %39 = tail call ptr @palloc0(i64 noundef %38) #16
  store ptr %39, ptr %4, align 8
  %40 = getelementptr inbounds nuw i8, ptr %0, i64 208
  %41 = load ptr, ptr %40, align 8
  %42 = load i64, ptr %3, align 8
  %43 = tail call ptr @dsa_get_address(ptr noundef %41, i64 noundef %42) #16
  %44 = load i32, ptr %36, align 8
  %45 = icmp sgt i32 %44, 0
  br i1 %45, label %.lr.ph, label %._crit_edge

.lr.ph:                                           ; preds = %30
  %46 = getelementptr inbounds nuw i8, ptr %3, i64 192
  %47 = getelementptr inbounds nuw i8, ptr %3, i64 40
  br label %48

48:                                               ; preds = %.lr.ph, %48
  %indvars.iv = phi i64 [ 0, %.lr.ph ], [ %indvars.iv.next, %48 ]
  %49 = load ptr, ptr %4, align 8
  %50 = getelementptr inbounds nuw %struct.ParallelHashJoinBatchAccessor, ptr %49, i64 %indvars.iv
  %51 = load ptr, ptr %2, align 8
  %52 = getelementptr inbounds nuw i8, ptr %51, i64 40
  %53 = load i32, ptr %52, align 8
  %54 = tail call i64 @sts_estimate(i32 noundef %53) #16
  %55 = shl i64 %54, 1
  %56 = add i64 %55, 14
  %57 = and i64 %56, -16
  %58 = add i64 %57, 96
  %59 = mul i64 %58, %indvars.iv
  %60 = getelementptr inbounds nuw i8, ptr %43, i64 %59
  store ptr %60, ptr %50, align 8
  %61 = getelementptr inbounds nuw i8, ptr %50, i64 8
  store i64 0, ptr %61, align 8
  %62 = getelementptr inbounds nuw i8, ptr %50, i64 50
  store i8 0, ptr %62, align 2
  %63 = getelementptr inbounds nuw i8, ptr %50, i64 49
  store i8 0, ptr %63, align 1
  %64 = getelementptr inbounds nuw i8, ptr %60, i64 96
  %65 = load i32, ptr @ParallelWorkerNumber, align 4
  %66 = add i32 %65, 1
  %67 = tail call ptr @sts_attach(ptr noundef nonnull %64, i32 noundef %66, ptr noundef nonnull %46) #16
  %68 = getelementptr inbounds nuw i8, ptr %50, i64 56
  store ptr %67, ptr %68, align 8
  %69 = load i32, ptr %47, align 8
  %70 = tail call i64 @sts_estimate(i32 noundef %69) #16
  %71 = add i64 %70, 7
  %72 = and i64 %71, -8
  %73 = getelementptr inbounds nuw i8, ptr %64, i64 %72
  %74 = load i32, ptr @ParallelWorkerNumber, align 4
  %75 = add i32 %74, 1
  %76 = tail call ptr @sts_attach(ptr noundef nonnull %73, i32 noundef %75, ptr noundef nonnull %46) #16
  %77 = getelementptr inbounds nuw i8, ptr %50, i64 64
  store ptr %76, ptr %77, align 8
  %indvars.iv.next = add nuw nsw i64 %indvars.iv, 1
  %78 = load i32, ptr %36, align 8
  %79 = sext i32 %78 to i64
  %80 = icmp slt i64 %indvars.iv.next, %79
  br i1 %80, label %48, label %._crit_edge, !llvm.loop !47

._crit_edge:                                      ; preds = %48, %30
  store ptr %33, ptr @CurrentMemoryContext, align 8
  br label %81

81:                                               ; preds = %6, %._crit_edge
  ret void
}